CCS PCM C Compiler, Version 5.049, 5967               25-nov.-21 21:13

               Filename:   D:\Electronica\Pic\project2\main.lst

               ROM used:   85 words (8%)
                           Largest free fragment is 939
               RAM used:   6 (3%) at main() level
                           7 (3%) worst case
               Stack used: 0 locations
               Stack size: 8

*
0000:  MOVLW  00
0001:  MOVWF  0A
0002:  GOTO   018
0003:  NOP
.................... #include <main.h> 
.................... #include <16F627A.h> 
.................... //////////// Standard Header file for the PIC16F627A device //////////////// 
.................... /////////////////////////////////////////////////////////////////////////// 
.................... ////        (C) Copyright 1996, 2014 Custom Computer Services          //// 
.................... //// This source code may only be used by licensed users of the CCS C  //// 
.................... //// compiler.  This source code may only be distributed to other      //// 
.................... //// licensed users of the CCS C compiler.  No other use, reproduction //// 
.................... //// or distribution is permitted without written permission.          //// 
.................... //// Derivative programs created using this software in object code    //// 
.................... //// form are not restricted in any way.                               //// 
.................... /////////////////////////////////////////////////////////////////////////// 
.................... #device PIC16F627A 
....................  
.................... #list 
....................  
.................... #use delay(crystal=20000000) 
....................  
....................  
....................  
.................... #fuses HS, NOWDT, NOPUT, NOLVP, NOPROTECT, BROWNOUT 
.................... #use delay(clock = 20M) 
0004:  MOVLW  22
0005:  MOVWF  04
0006:  BCF    03.7
0007:  MOVF   00,W
0008:  BTFSC  03.2
0009:  GOTO   017
000A:  MOVLW  06
000B:  MOVWF  78
000C:  CLRF   77
000D:  DECFSZ 77,F
000E:  GOTO   00D
000F:  DECFSZ 78,F
0010:  GOTO   00C
0011:  MOVLW  7B
0012:  MOVWF  77
0013:  DECFSZ 77,F
0014:  GOTO   013
0015:  DECFSZ 00,F
0016:  GOTO   00A
0017:  RETURN
....................  
.................... #use fast_io(B) 
....................  
.................... void main() 
0018:  MOVF   03,W
0019:  ANDLW  1F
001A:  MOVWF  03
001B:  MOVLW  07
001C:  MOVWF  1F
001D:  BCF    03.7
.................... { 
....................  
....................    set_tris_b(0b11111000); //puerto b0-b1-b2 como salida, los demas como entrada 
001E:  MOVLW  F8
001F:  BSF    03.5
0020:  MOVWF  06
....................    output_b(0x00); //para limpiar el puerto 
0021:  BCF    03.5
0022:  CLRF   06
....................  
....................    while(TRUE) 
....................    { 
....................       output_high(PIN_B0); 
0023:  BSF    06.0
....................       delay_ms(2000); 
0024:  MOVLW  08
0025:  MOVWF  21
0026:  MOVLW  FA
0027:  MOVWF  22
0028:  CALL   004
0029:  DECFSZ 21,F
002A:  GOTO   026
....................       output_high(pin_b1); 
002B:  BSF    06.1
....................       delay_ms(2000); 
002C:  MOVLW  08
002D:  MOVWF  21
002E:  MOVLW  FA
002F:  MOVWF  22
0030:  CALL   004
0031:  DECFSZ 21,F
0032:  GOTO   02E
....................       output_high(pin_b2); 
0033:  BSF    06.2
....................       delay_ms(2000); 
0034:  MOVLW  08
0035:  MOVWF  21
0036:  MOVLW  FA
0037:  MOVWF  22
0038:  CALL   004
0039:  DECFSZ 21,F
003A:  GOTO   036
....................       output_low(pin_b0); 
003B:  BCF    06.0
....................       delay_ms(2000); 
003C:  MOVLW  08
003D:  MOVWF  21
003E:  MOVLW  FA
003F:  MOVWF  22
0040:  CALL   004
0041:  DECFSZ 21,F
0042:  GOTO   03E
....................       output_low(pin_b1); 
0043:  BCF    06.1
....................       delay_ms(2000); 
0044:  MOVLW  08
0045:  MOVWF  21
0046:  MOVLW  FA
0047:  MOVWF  22
0048:  CALL   004
0049:  DECFSZ 21,F
004A:  GOTO   046
....................       output_low(pin_b2); 
004B:  BCF    06.2
....................       delay_ms(2000); 
004C:  MOVLW  08
004D:  MOVWF  21
004E:  MOVLW  FA
004F:  MOVWF  22
0050:  CALL   004
0051:  DECFSZ 21,F
0052:  GOTO   04E
0053:  GOTO   023
....................    } 
....................  
.................... } 
0054:  SLEEP

Configuration Fuses:
   Word  1: 216A   NOWDT NOPUT HS MCLR BROWNOUT NOLVP NOCPD NOPROTECT
